#include <math.h>
#include <stdio.h>
#include <stdlib.h>
#include <string.h>

int main(){
  int n,m;
  
  int i,j;
  
scanf("%d",&n);
for(i=0;i<n;i++){
   scanf("%d",&m);
  int a=2,b=1;
  double sum=0;
   for(j=m;j>0;j--){
     sum+=1.0*a/b;
	 a=a+b;
	 b=a-b;
   }
   printf("%.3lf\n",sum);
}
 
return 0;

}